target datalayout = "e-m:e-p270:32:32-p271:32:32-p272:64:64-i64:64-i128:128-f80:128-n8:16:32:64-S128"
target triple = "x86_64-pc-linux-gnu"

%struct._typeobject = type { %struct.PyVarObject, ptr, i64, i64, ptr, i64, ptr, ptr, ptr, ptr, ptr, ptr, ptr, ptr, ptr, ptr, ptr, ptr, ptr, i64, ptr, ptr, ptr, ptr, i64, ptr, ptr, ptr, ptr, ptr, ptr, ptr, ptr, ptr, i64, ptr, ptr, ptr, ptr, ptr, ptr, ptr, ptr, ptr, ptr, ptr, i32, ptr, ptr, i8, i16 }
%struct.PyVarObject = type { %struct._object, i64 }
%struct._object = type { %union.anon, ptr }
%union.anon = type { i64 }
%struct._odictobject = type { %struct.PyDictObject, ptr, ptr, ptr, i64, ptr, i64, ptr, ptr }
%struct.PyDictObject = type { %struct._object, i64, i64, ptr, ptr }
%struct._odictnode = type { ptr, i64, ptr, ptr }

@PyDict_Type = external global %struct._typeobject, align 8

; Function Attrs: nounwind uwtable
define internal i32 @odict_traverse(ptr noundef %0, ptr noundef %1, ptr noundef %2) #0 {
  %4 = alloca i32, align 4
  %5 = alloca ptr, align 8
  %6 = alloca ptr, align 8
  %7 = alloca ptr, align 8
  %8 = alloca ptr, align 8
  %9 = alloca i32, align 4
  %10 = alloca i32, align 4
  %11 = alloca i32, align 4
  store ptr %0, ptr %5, align 8, !tbaa !4
  store ptr %1, ptr %6, align 8, !tbaa !44
  store ptr %2, ptr %7, align 8, !tbaa !44
  call void @llvm.lifetime.start.p0(i64 8, ptr %8) #7
  br label %12

12:                                               ; preds = %3
  %13 = load ptr, ptr %5, align 8, !tbaa !4
  %14 = getelementptr inbounds nuw %struct._odictobject, ptr %13, i32 0, i32 7
  %15 = load ptr, ptr %14, align 8, !tbaa !33
  %16 = icmp ne ptr %15, null
  br i1 %16, label %17, label %32

17:                                               ; preds = %12
  call void @llvm.lifetime.start.p0(i64 4, ptr %9) #7
  %18 = load ptr, ptr %6, align 8, !tbaa !44
  %19 = load ptr, ptr %5, align 8, !tbaa !4
  %20 = getelementptr inbounds nuw %struct._odictobject, ptr %19, i32 0, i32 7
  %21 = load ptr, ptr %20, align 8, !tbaa !33
  %22 = load ptr, ptr %7, align 8, !tbaa !44
  %23 = call i32 %18(ptr noundef %21, ptr noundef %22)
  store i32 %23, ptr %9, align 4, !tbaa !43
  %24 = load i32, ptr %9, align 4, !tbaa !43
  %25 = icmp ne i32 %24, 0
  br i1 %25, label %26, label %28

26:                                               ; preds = %17
  %27 = load i32, ptr %9, align 4, !tbaa !43
  store i32 %27, ptr %4, align 4
  store i32 1, ptr %10, align 4
  br label %29

28:                                               ; preds = %17
  store i32 0, ptr %10, align 4
  br label %29

29:                                               ; preds = %28, %26
  call void @llvm.lifetime.end.p0(i64 4, ptr %9) #7
  %30 = load i32, ptr %10, align 4
  switch i32 %30, label %75 [
    i32 0, label %31
  ]

31:                                               ; preds = %29
  br label %32

32:                                               ; preds = %31, %12
  br label %33

33:                                               ; preds = %32
  br label %34

34:                                               ; preds = %33
  %35 = load ptr, ptr %5, align 8, !tbaa !4
  %36 = getelementptr inbounds nuw %struct._odictobject, ptr %35, i32 0, i32 1
  %37 = load ptr, ptr %36, align 8, !tbaa !45
  store ptr %37, ptr %8, align 8, !tbaa !46
  br label %38

38:                                               ; preds = %65, %34
  %39 = load ptr, ptr %8, align 8, !tbaa !46
  %40 = icmp ne ptr %39, null
  br i1 %40, label %41, label %69

41:                                               ; preds = %38
  br label %42

42:                                               ; preds = %41
  %43 = load ptr, ptr %8, align 8, !tbaa !46
  %44 = getelementptr inbounds nuw %struct._odictnode, ptr %43, i32 0, i32 0
  %45 = load ptr, ptr %44, align 8, !tbaa !47
  %46 = icmp ne ptr %45, null
  br i1 %46, label %47, label %62

47:                                               ; preds = %42
  call void @llvm.lifetime.start.p0(i64 4, ptr %11) #7
  %48 = load ptr, ptr %6, align 8, !tbaa !44
  %49 = load ptr, ptr %8, align 8, !tbaa !46
  %50 = getelementptr inbounds nuw %struct._odictnode, ptr %49, i32 0, i32 0
  %51 = load ptr, ptr %50, align 8, !tbaa !47
  %52 = load ptr, ptr %7, align 8, !tbaa !44
  %53 = call i32 %48(ptr noundef %51, ptr noundef %52)
  store i32 %53, ptr %11, align 4, !tbaa !43
  %54 = load i32, ptr %11, align 4, !tbaa !43
  %55 = icmp ne i32 %54, 0
  br i1 %55, label %56, label %58

56:                                               ; preds = %47
  %57 = load i32, ptr %11, align 4, !tbaa !43
  store i32 %57, ptr %4, align 4
  store i32 1, ptr %10, align 4
  br label %59

58:                                               ; preds = %47
  store i32 0, ptr %10, align 4
  br label %59

59:                                               ; preds = %58, %56
  call void @llvm.lifetime.end.p0(i64 4, ptr %11) #7
  %60 = load i32, ptr %10, align 4
  switch i32 %60, label %75 [
    i32 0, label %61
  ]

61:                                               ; preds = %59
  br label %62

62:                                               ; preds = %61, %42
  br label %63

63:                                               ; preds = %62
  br label %64

64:                                               ; preds = %63
  br label %65

65:                                               ; preds = %64
  %66 = load ptr, ptr %8, align 8, !tbaa !46
  %67 = getelementptr inbounds nuw %struct._odictnode, ptr %66, i32 0, i32 2
  %68 = load ptr, ptr %67, align 8, !tbaa !49
  store ptr %68, ptr %8, align 8, !tbaa !46
  br label %38, !llvm.loop !50

69:                                               ; preds = %38
  %70 = load ptr, ptr getelementptr inbounds nuw (%struct._typeobject, ptr @PyDict_Type, i32 0, i32 21), align 8, !tbaa !52
  %71 = load ptr, ptr %5, align 8, !tbaa !4
  %72 = load ptr, ptr %6, align 8, !tbaa !44
  %73 = load ptr, ptr %7, align 8, !tbaa !44
  %74 = call i32 %70(ptr noundef %71, ptr noundef %72, ptr noundef %73)
  store i32 %74, ptr %4, align 4
  store i32 1, ptr %10, align 4
  br label %75

75:                                               ; preds = %69, %59, %29
  call void @llvm.lifetime.end.p0(i64 8, ptr %8) #7
  %76 = load i32, ptr %4, align 4
  ret i32 %76
}