; Function Attrs: nounwind uwtable
define internal i32 @odict_traverse(ptr noundef %0, ptr noundef %1, ptr noundef %2) #0 {
  %4 = getelementptr inbounds nuw i8, ptr %0, i64 96
  %5 = load ptr, ptr %4, align 8, !tbaa !31
  %.not = icmp eq ptr %5, null
  br i1 %.not, label %8, label %6

6:                                                ; preds = %3
  %7 = tail call i32 %1(ptr noundef nonnull %5, ptr noundef %2) #8
  %.not26 = icmp eq i32 %7, 0
  br i1 %.not26, label %8, label %.loopexit

8:                                                ; preds = %6, %3
  %9 = getelementptr inbounds nuw i8, ptr %0, i64 48
  %.02330 = load ptr, ptr %9, align 8, !tbaa !50
  %.not2731 = icmp eq ptr %.02330, null
  br i1 %.not2731, label %._crit_edge, label %.lr.ph

.lr.ph:                                           ; preds = %8, %13
  %.02332 = phi ptr [ %.023, %13 ], [ %.02330, %8 ]
  %10 = load ptr, ptr %.02332, align 8, !tbaa !44
  %.not28 = icmp eq ptr %10, null
  br i1 %.not28, label %13, label %11

11:                                               ; preds = %.lr.ph
  %12 = tail call i32 %1(ptr noundef nonnull %10, ptr noundef %2) #8
  %.not29 = icmp eq i32 %12, 0
  br i1 %.not29, label %13, label %.loopexit

13:                                               ; preds = %.lr.ph, %11
  %14 = getelementptr inbounds nuw i8, ptr %.02332, i64 16
  %.023 = load ptr, ptr %14, align 8, !tbaa !50
  %.not27 = icmp eq ptr %.023, null
  br i1 %.not27, label %._crit_edge, label %.lr.ph, !llvm.loop !51

._crit_edge:                                      ; preds = %13, %8
  %15 = load ptr, ptr getelementptr inbounds nuw (i8, ptr @PyDict_Type, i64 184), align 8, !tbaa !52
  %16 = tail call i32 %15(ptr noundef %0, ptr noundef %1, ptr noundef %2) #8
  br label %.loopexit

.loopexit:                                        ; preds = %11, %6, %._crit_edge
  %.1 = phi i32 [ %16, %._crit_edge ], [ %7, %6 ], [ %12, %11 ]
  ret i32 %.1
}